target datalayout = "e-m:e-p270:32:32-p271:32:32-p272:64:64-i64:64-i128:128-f80:128-n8:16:32:64-S128"
target triple = "x86_64-pc-linux-gnu"

%"class.llvm::LazyValueInfo" = type { ptr, ptr, ptr }

; Function Attrs: mustprogress nounwind uwtable
define dso_local noundef ptr @_ZN4llvm13LazyValueInfo7getImplEv(ptr noundef nonnull align 8 dereferenceable(24) %0) #0 align 2 {
  %2 = alloca ptr, align 8
  %3 = alloca ptr, align 8
  store ptr %0, ptr %3, align 8
  %4 = load ptr, ptr %3, align 8
  %5 = getelementptr inbounds nuw %"class.llvm::LazyValueInfo", ptr %4, i32 0, i32 2
  %6 = load ptr, ptr %5, align 8
  %7 = icmp ne ptr %6, null
  br i1 %7, label %9, label %8

8:                                                ; preds = %1
  store ptr null, ptr %2, align 8
  br label %12

9:                                                ; preds = %1
  %10 = getelementptr inbounds nuw %"class.llvm::LazyValueInfo", ptr %4, i32 0, i32 2
  %11 = load ptr, ptr %10, align 8
  store ptr %11, ptr %2, align 8
  br label %12

12:                                               ; preds = %9, %8
  %13 = load ptr, ptr %2, align 8
  ret ptr %13
}

; Function Attrs: mustprogress nounwind uwtable
define dso_local void @_ZN4llvm13LazyValueInfo10eraseBlockEPNS_10BasicBlockE(ptr noundef nonnull align 8 dereferenceable(24) %0, ptr noundef %1) #0 align 2 {
  %3 = alloca ptr, align 8
  %4 = alloca ptr, align 8
  %5 = alloca ptr, align 8
  store ptr %0, ptr %3, align 8
  store ptr %1, ptr %4, align 8
  %6 = load ptr, ptr %3, align 8
  %7 = call noundef ptr @_ZN4llvm13LazyValueInfo7getImplEv(ptr noundef nonnull align 8 dereferenceable(24) %6)
  store ptr %7, ptr %5, align 8
  %8 = load ptr, ptr %5, align 8
  %9 = icmp ne ptr %8, null
  br i1 %9, label %10, label %13

10:                                               ; preds = %2
  %11 = load ptr, ptr %5, align 8
  %12 = load ptr, ptr %4, align 8
  call void @_ZN4llvm17LazyValueInfoImpl10eraseBlockEPNS_10BasicBlockE(ptr noundef nonnull align 8 dereferenceable(240) %11, ptr noundef %12)
  br label %13

13:                                               ; preds = %10, %2
  ret void
}