; Function Attrs: mustprogress nounwind uwtable
define dso_local void @_ZN4llvm13LazyValueInfo10eraseBlockEPNS_10BasicBlockE(ptr nocapture noundef nonnull readonly align 8 dereferenceable(24) %0, ptr noundef %1) local_unnamed_addr #0 align 2 {
  %3 = getelementptr inbounds nuw i8, ptr %0, i64 16
  %4 = load ptr, ptr %3, align 8
  %.not = icmp eq ptr %4, null
  br i1 %.not, label %6, label %5

5:                                                ; preds = %2
  tail call void @_ZN4llvm17LazyValueInfoImpl10eraseBlockEPNS_10BasicBlockE(ptr noundef nonnull align 8 dereferenceable(240) %4, ptr noundef %1)
  br label %6

6:                                                ; preds = %5, %2
  ret void
}